target datalayout = "e-m:e-p270:32:32-p271:32:32-p272:64:64-i64:64-i128:128-f80:128-n8:16:32:64-S128"
target triple = "x86_64-pc-linux-gnu"

%struct._php_basic_globals = type { ptr, %struct._zend_array, ptr, ptr, i8, ptr, [256 x i8], i64, %struct._zend_fcall_info, %struct._zend_fcall_info_cache, ptr, %struct._zval_struct, %struct._zval_struct, i64, i64, i64, i64, ptr, ptr, %struct._php_stream_statbuf, %struct._php_stream_statbuf, ptr, i32, %struct.anon.7, %struct.anon.8, %struct.url_adapt_state_ex_t, %struct._zend_array, %struct.url_adapt_state_ex_t, %struct._zend_array, ptr, i32, i64 }
%struct._zend_fcall_info = type { i64, %struct._zval_struct, ptr, ptr, ptr, i32, ptr }
%struct._zend_fcall_info_cache = type { ptr, ptr, ptr, ptr, ptr }
%struct._zval_struct = type { %union._zend_value, %union.anon.3, %union.anon.6 }
%union._zend_value = type { i64 }
%union.anon.3 = type { i32 }
%union.anon.6 = type { i32 }
%struct._php_stream_statbuf = type { %struct.stat }
%struct.stat = type { i64, i64, i64, i32, i32, i32, i32, i64, i64, i64, i64, %struct.timespec, %struct.timespec, %struct.timespec, [3 x i64] }
%struct.timespec = type { i64, i64 }
%struct.anon.7 = type { ptr, i32 }
%struct.anon.8 = type { ptr, i32 }
%struct.url_adapt_state_ex_t = type { %struct.smart_str, %struct.smart_str, %struct.smart_str, %struct.smart_str, %struct.smart_str, %struct.smart_str, %struct.smart_str, i32, ptr, i32, i32, %struct.smart_str, i32, i32, ptr }
%struct.smart_str = type { ptr, i64 }
%struct._zend_array = type { %struct._zend_refcounted_h, %union.anon.0, i32, %union.anon.1, i32, i32, i32, i32, i64, ptr }
%struct._zend_refcounted_h = type { i32, %union.anon }
%union.anon = type { i32 }
%union.anon.0 = type { i32 }
%union.anon.1 = type { ptr }

@basic_globals = external global %struct._php_basic_globals, align 8

; Function Attrs: nounwind uwtable
define void @php_clear_stat_cache(i1 noundef zeroext %0, ptr noundef %1, i64 noundef %2) #0 {
  %4 = alloca ptr, align 8
  %5 = alloca ptr, align 8
  %6 = alloca i32, align 4
  %7 = alloca i32, align 4
  %8 = alloca i32, align 4
  %9 = alloca i32, align 4
  %10 = alloca ptr, align 8
  %11 = alloca ptr, align 8
  %12 = alloca i8, align 1
  %13 = alloca ptr, align 8
  %14 = alloca i64, align 8
  %15 = zext i1 %0 to i8
  store i8 %15, ptr %12, align 1
  store ptr %1, ptr %13, align 8
  store i64 %2, ptr %14, align 8
  %16 = load ptr, ptr getelementptr inbounds (%struct._php_basic_globals, ptr @basic_globals, i32 0, i32 17), align 8
  %17 = icmp ne ptr %16, null
  br i1 %17, label %18, label %51

18:                                               ; preds = %3
  %19 = load ptr, ptr getelementptr inbounds (%struct._php_basic_globals, ptr @basic_globals, i32 0, i32 17), align 8
  store ptr %19, ptr %10, align 8
  %20 = load ptr, ptr %10, align 8
  %21 = getelementptr inbounds %struct._zend_refcounted_h, ptr %20, i32 0, i32 1
  %22 = load i32, ptr %21, align 4
  store i32 %22, ptr %8, align 4
  %23 = load i32, ptr %8, align 4
  %24 = and i32 %23, 1008
  %25 = and i32 %24, 64
  %26 = icmp ne i32 %25, 0
  br i1 %26, label %50, label %27

27:                                               ; preds = %18
  %28 = load ptr, ptr %10, align 8
  store ptr %28, ptr %5, align 8
  %29 = load ptr, ptr %5, align 8
  %30 = load i32, ptr %29, align 4
  %31 = icmp ugt i32 %30, 0
  call void @llvm.assume(i1 %31)
  %32 = load ptr, ptr %5, align 8
  %33 = load i32, ptr %32, align 4
  %34 = add i32 %33, -1
  store i32 %34, ptr %32, align 4
  %35 = icmp eq i32 %34, 0
  br i1 %35, label %36, label %49

36:                                               ; preds = %27
  %37 = load ptr, ptr %10, align 8
  %38 = getelementptr inbounds %struct._zend_refcounted_h, ptr %37, i32 0, i32 1
  %39 = load i32, ptr %38, align 4
  store i32 %39, ptr %9, align 4
  %40 = load i32, ptr %9, align 4
  %41 = and i32 %40, 1008
  %42 = and i32 %41, 128
  %43 = icmp ne i32 %42, 0
  br i1 %43, label %44, label %46

44:                                               ; preds = %36
  %45 = load ptr, ptr %10, align 8
  call void @free(ptr noundef %45) #10
  br label %48

46:                                               ; preds = %36
  %47 = load ptr, ptr %10, align 8
  call void @_efree(ptr noundef %47) #10
  br label %48

48:                                               ; preds = %46, %44
  br label %49

49:                                               ; preds = %48, %27
  br label %50

50:                                               ; preds = %49, %18
  store ptr null, ptr getelementptr inbounds (%struct._php_basic_globals, ptr @basic_globals, i32 0, i32 17), align 8
  br label %51

51:                                               ; preds = %50, %3
  %52 = load ptr, ptr getelementptr inbounds (%struct._php_basic_globals, ptr @basic_globals, i32 0, i32 18), align 8
  %53 = icmp ne ptr %52, null
  br i1 %53, label %54, label %87

54:                                               ; preds = %51
  %55 = load ptr, ptr getelementptr inbounds (%struct._php_basic_globals, ptr @basic_globals, i32 0, i32 18), align 8
  store ptr %55, ptr %11, align 8
  %56 = load ptr, ptr %11, align 8
  %57 = getelementptr inbounds %struct._zend_refcounted_h, ptr %56, i32 0, i32 1
  %58 = load i32, ptr %57, align 4
  store i32 %58, ptr %6, align 4
  %59 = load i32, ptr %6, align 4
  %60 = and i32 %59, 1008
  %61 = and i32 %60, 64
  %62 = icmp ne i32 %61, 0
  br i1 %62, label %86, label %63

63:                                               ; preds = %54
  %64 = load ptr, ptr %11, align 8
  store ptr %64, ptr %4, align 8
  %65 = load ptr, ptr %4, align 8
  %66 = load i32, ptr %65, align 4
  %67 = icmp ugt i32 %66, 0
  call void @llvm.assume(i1 %67)
  %68 = load ptr, ptr %4, align 8
  %69 = load i32, ptr %68, align 4
  %70 = add i32 %69, -1
  store i32 %70, ptr %68, align 4
  %71 = icmp eq i32 %70, 0
  br i1 %71, label %72, label %85

72:                                               ; preds = %63
  %73 = load ptr, ptr %11, align 8
  %74 = getelementptr inbounds %struct._zend_refcounted_h, ptr %73, i32 0, i32 1
  %75 = load i32, ptr %74, align 4
  store i32 %75, ptr %7, align 4
  %76 = load i32, ptr %7, align 4
  %77 = and i32 %76, 1008
  %78 = and i32 %77, 128
  %79 = icmp ne i32 %78, 0
  br i1 %79, label %80, label %82

80:                                               ; preds = %72
  %81 = load ptr, ptr %11, align 8
  call void @free(ptr noundef %81) #10
  br label %84

82:                                               ; preds = %72
  %83 = load ptr, ptr %11, align 8
  call void @_efree(ptr noundef %83) #10
  br label %84

84:                                               ; preds = %82, %80
  br label %85

85:                                               ; preds = %84, %63
  br label %86

86:                                               ; preds = %85, %54
  store ptr null, ptr getelementptr inbounds (%struct._php_basic_globals, ptr @basic_globals, i32 0, i32 18), align 8
  br label %87

87:                                               ; preds = %86, %51
  %88 = load i8, ptr %12, align 1
  %89 = trunc i8 %88 to i1
  br i1 %89, label %90, label %98

90:                                               ; preds = %87
  %91 = load ptr, ptr %13, align 8
  %92 = icmp ne ptr %91, null
  br i1 %92, label %93, label %96

93:                                               ; preds = %90
  %94 = load ptr, ptr %13, align 8
  %95 = load i64, ptr %14, align 8
  call void @realpath_cache_del(ptr noundef %94, i64 noundef %95)
  br label %97

96:                                               ; preds = %90
  call void @realpath_cache_clean()
  br label %97

97:                                               ; preds = %96, %93
  br label %98

98:                                               ; preds = %97, %87
  ret void
}