; Function Attrs: nounwind uwtable
define void @php_clear_stat_cache(i1 noundef zeroext %0, ptr noundef %1, i64 noundef %2) local_unnamed_addr #1 {
  %4 = load ptr, ptr getelementptr inbounds (%struct._php_basic_globals, ptr @basic_globals, i64 0, i32 17), align 8
  %.not = icmp eq ptr %4, null
  br i1 %.not, label %19, label %5

5:                                                ; preds = %3
  %6 = getelementptr inbounds i8, ptr %4, i64 4
  %7 = load i32, ptr %6, align 4
  %8 = and i32 %7, 64
  %.not23 = icmp eq i32 %8, 0
  br i1 %.not23, label %9, label %18

9:                                                ; preds = %5
  %10 = load i32, ptr %4, align 4
  %11 = icmp ne i32 %10, 0
  tail call void @llvm.assume(i1 %11)
  %12 = add i32 %10, -1
  store i32 %12, ptr %4, align 4
  %13 = icmp eq i32 %12, 0
  br i1 %13, label %14, label %18

14:                                               ; preds = %9
  %15 = and i32 %7, 128
  %.not24 = icmp eq i32 %15, 0
  br i1 %.not24, label %17, label %16

16:                                               ; preds = %14
  tail call void @free(ptr noundef nonnull %4) #16
  br label %18

17:                                               ; preds = %14
  tail call void @_efree(ptr noundef nonnull %4) #16
  br label %18

18:                                               ; preds = %9, %17, %16, %5
  store ptr null, ptr getelementptr inbounds (%struct._php_basic_globals, ptr @basic_globals, i64 0, i32 17), align 8
  br label %19

19:                                               ; preds = %18, %3
  %20 = load ptr, ptr getelementptr inbounds (%struct._php_basic_globals, ptr @basic_globals, i64 0, i32 18), align 8
  %.not25 = icmp eq ptr %20, null
  br i1 %.not25, label %35, label %21

21:                                               ; preds = %19
  %22 = getelementptr inbounds i8, ptr %20, i64 4
  %23 = load i32, ptr %22, align 4
  %24 = and i32 %23, 64
  %.not26 = icmp eq i32 %24, 0
  br i1 %.not26, label %25, label %34

25:                                               ; preds = %21
  %26 = load i32, ptr %20, align 4
  %27 = icmp ne i32 %26, 0
  tail call void @llvm.assume(i1 %27)
  %28 = add i32 %26, -1
  store i32 %28, ptr %20, align 4
  %29 = icmp eq i32 %28, 0
  br i1 %29, label %30, label %34

30:                                               ; preds = %25
  %31 = and i32 %23, 128
  %.not27 = icmp eq i32 %31, 0
  br i1 %.not27, label %33, label %32

32:                                               ; preds = %30
  tail call void @free(ptr noundef nonnull %20) #16
  br label %34

33:                                               ; preds = %30
  tail call void @_efree(ptr noundef nonnull %20) #16
  br label %34

34:                                               ; preds = %25, %33, %32, %21
  store ptr null, ptr getelementptr inbounds (%struct._php_basic_globals, ptr @basic_globals, i64 0, i32 18), align 8
  br label %35

35:                                               ; preds = %34, %19
  br i1 %0, label %36, label %39

36:                                               ; preds = %35
  %.not28 = icmp eq ptr %1, null
  br i1 %.not28, label %38, label %37

37:                                               ; preds = %36
  tail call void @realpath_cache_del(ptr noundef nonnull %1, i64 noundef %2) #16
  br label %39

38:                                               ; preds = %36
  tail call void @realpath_cache_clean() #16
  br label %39

39:                                               ; preds = %37, %38, %35
  ret void
}